; Function Attrs: mustprogress nounwind uwtable
define dso_local void @_ZN4node4quic6Stream9EntryReadEm(ptr nocapture noundef nonnull readonly align 8 dereferenceable(256) %this, i64 noundef %amount) unnamed_addr #3 align 2 {
entry:
  %ptr_.i.i = getelementptr inbounds i8, ptr %this, i64 144
  %0 = load ptr, ptr %ptr_.i.i, align 8
  %destroyed.i = getelementptr inbounds i8, ptr %0, i64 12
  %1 = load i8, ptr %destroyed.i, align 4
  %tobool.i.not = icmp eq i8 %1, 0
  br i1 %tobool.i.not, label %land.lhs.true, label %if.end

land.lhs.true:                                    ; preds = %entry
  %session_ = getelementptr inbounds i8, ptr %this, i64 160
  %2 = load ptr, ptr %session_, align 8
  %cmp.i.i.i = icmp eq ptr %2, null
  br i1 %cmp.i.i.i, label %if.end, label %_ZNK4node17BaseObjectPtrImplINS_4quic7SessionELb1EEcvbEv.exit

_ZNK4node17BaseObjectPtrImplINS_4quic7SessionELb1EEcvbEv.exit: ; preds = %land.lhs.true
  %self.i.i.i = getelementptr inbounds i8, ptr %2, i64 16
  %3 = load ptr, ptr %self.i.i.i, align 8
  %.not = icmp eq ptr %3, null
  br i1 %.not, label %if.end, label %_ZNK4node17BaseObjectPtrImplINS_4quic7SessionELb1EEptEv.exit

_ZNK4node17BaseObjectPtrImplINS_4quic7SessionELb1EEptEv.exit: ; preds = %_ZNK4node17BaseObjectPtrImplINS_4quic7SessionELb1EEcvbEv.exit
  %4 = load i64, ptr %0, align 8
  tail call void @_ZN4node4quic7Session18ExtendStreamOffsetElm(ptr noundef nonnull align 8 dereferenceable(2616) %3, i64 noundef %4, i64 noundef %amount) #26
  br label %if.end

if.end:                                           ; preds = %land.lhs.true, %_ZNK4node17BaseObjectPtrImplINS_4quic7SessionELb1EEptEv.exit, %_ZNK4node17BaseObjectPtrImplINS_4quic7SessionELb1EEcvbEv.exit, %entry
  ret void
}